; Function Attrs: nofree norecurse nosync nounwind memory(none) uwtable
define hidden ptr @mbedtls_ssl_get_curve_name_from_tls_id(i16 noundef zeroext %0) local_unnamed_addr #21 {
  %2 = icmp eq i16 %0, 25
  br i1 %2, label %._crit_edge, label %.lr.ph

.lr.ph:                                           ; preds = %1, %3
  %indvars.iv14 = phi i64 [ %indvars.iv.next, %3 ], [ 0, %1 ]
  %indvars.iv.next = add nuw nsw i64 %indvars.iv14, 1
  %exitcond = icmp eq i64 %indvars.iv.next, 13
  br i1 %exitcond, label %.loopexit, label %3, !llvm.loop !254

3:                                                ; preds = %.lr.ph
  %4 = getelementptr inbounds nuw [14 x %struct.anon.6], ptr @tls_id_curve_name_table, i64 0, i64 %indvars.iv.next
  %5 = load i16, ptr %4, align 16, !tbaa !255
  %6 = icmp eq i16 %5, %0
  br i1 %6, label %._crit_edge, label %.lr.ph, !llvm.loop !254

._crit_edge:                                      ; preds = %3, %1
  %.lcssa = phi ptr [ @tls_id_curve_name_table, %1 ], [ %4, %3 ]
  %7 = getelementptr inbounds nuw i8, ptr %.lcssa, i64 8
  %8 = load ptr, ptr %7, align 8, !tbaa !257
  br label %.loopexit

.loopexit:                                        ; preds = %.lr.ph, %._crit_edge
  %spec.select = phi ptr [ %8, %._crit_edge ], [ null, %.lr.ph ]
  ret ptr %spec.select
}